; Function Attrs: nounwind uwtable
define internal void @kem_test_cleanup(ptr noundef readonly captures(none) %0) #1 {
  %2 = getelementptr inbounds nuw i8, ptr %0, i64 35272
  %3 = load ptr, ptr %2, align 8, !tbaa !20
  %4 = getelementptr inbounds nuw i8, ptr %3, i64 48
  %5 = load ptr, ptr %4, align 8, !tbaa !302
  tail call void @OPENSSL_sk_pop_free(ptr noundef %5, ptr noundef nonnull @openssl_free) #10
  %6 = getelementptr inbounds nuw i8, ptr %3, i64 16
  %7 = load ptr, ptr %6, align 8, !tbaa !303
  tail call void @CRYPTO_free(ptr noundef %7, ptr noundef nonnull @.str.29, i32 noundef 2175) #10
  %8 = getelementptr inbounds nuw i8, ptr %3, i64 32
  %9 = load ptr, ptr %8, align 8, !tbaa !304
  tail call void @CRYPTO_free(ptr noundef %9, ptr noundef nonnull @.str.29, i32 noundef 2176) #10
  %10 = getelementptr inbounds nuw i8, ptr %3, i64 56
  %11 = load ptr, ptr %10, align 8, !tbaa !300
  tail call void @CRYPTO_free(ptr noundef %11, ptr noundef nonnull @.str.29, i32 noundef 2177) #10
  %12 = getelementptr inbounds nuw i8, ptr %3, i64 64
  %13 = load ptr, ptr %12, align 8, !tbaa !305
  tail call void @CRYPTO_free(ptr noundef %13, ptr noundef nonnull @.str.29, i32 noundef 2178) #10
  %14 = getelementptr inbounds nuw i8, ptr %3, i64 72
  %15 = load ptr, ptr %14, align 8, !tbaa !306
  tail call void @CRYPTO_free(ptr noundef %15, ptr noundef nonnull @.str.29, i32 noundef 2179) #10
  %16 = getelementptr inbounds nuw i8, ptr %3, i64 88
  %17 = load ptr, ptr %16, align 8, !tbaa !307
  tail call void @CRYPTO_free(ptr noundef %17, ptr noundef nonnull @.str.29, i32 noundef 2180) #10
  %18 = getelementptr inbounds nuw i8, ptr %3, i64 104
  %19 = load ptr, ptr %18, align 8, !tbaa !308
  tail call void @CRYPTO_free(ptr noundef %19, ptr noundef nonnull @.str.29, i32 noundef 2181) #10
  %20 = getelementptr inbounds nuw i8, ptr %3, i64 120
  %21 = load ptr, ptr %20, align 8, !tbaa !309
  tail call void @CRYPTO_free(ptr noundef %21, ptr noundef nonnull @.str.29, i32 noundef 2182) #10
  %22 = load ptr, ptr %3, align 8, !tbaa !310
  tail call void @EVP_PKEY_CTX_free(ptr noundef %22) #10
  ret void
}